; Function Attrs: mustprogress nofree norecurse nosync nounwind willreturn memory(read, inaccessiblemem: none) uwtable
define <2 x float> @_ZNK15b2RevoluteJoint10GetAnchorAEv(ptr nocapture noundef nonnull readonly align 8 dereferenceable(272) %this) unnamed_addr #6 align 2 {
entry:
  %m_bodyA = getelementptr inbounds i8, ptr %this, i64 96
  %0 = load ptr, ptr %m_bodyA, align 8
  %m_localAnchorA = getelementptr inbounds i8, ptr %this, i64 128
  %m_xf.i = getelementptr inbounds i8, ptr %0, i64 12
  %q.i.i = getelementptr inbounds i8, ptr %0, i64 20
  %1 = load <4 x float>, ptr %m_localAnchorA, align 8
  %y.i.i = getelementptr inbounds i8, ptr %this, i64 132
  %2 = load <4 x float>, ptr %y.i.i, align 4
  %3 = load <2 x float>, ptr %q.i.i, align 4
  %4 = shufflevector <2 x float> %3, <2 x float> poison, <2 x i32> <i32 1, i32 0>
  %5 = extractelement <2 x float> %3, i64 0
  %6 = fneg float %5
  %7 = shufflevector <4 x float> %2, <4 x float> poison, <2 x i32> zeroinitializer
  %8 = insertelement <2 x float> %3, float %6, i64 0
  %9 = fmul <2 x float> %7, %8
  %10 = shufflevector <4 x float> %1, <4 x float> poison, <2 x i32> zeroinitializer
  %11 = tail call <2 x float> @llvm.fmuladd.v2f32(<2 x float> %4, <2 x float> %10, <2 x float> %9)
  %12 = load <2 x float>, ptr %m_xf.i, align 4
  %13 = fadd <2 x float> %12, %11
  ret <2 x float> %13
}